target datalayout = "e-m:e-p270:32:32-p271:32:32-p272:64:64-i64:64-i128:128-f80:128-n8:16:32:64-S128"
target triple = "x86_64-pc-linux-gnu"

%struct._packet_info = type { ptr, ptr, i32, i32, %struct.nstime_t, %struct.nstime_t, %struct.nstime_t, i8, ptr, ptr, ptr, ptr, %struct._address, %struct._address, %struct._address, %struct._address, %struct._address, %struct._address, i32, ptr, i8, [3 x i8], %struct.anon, i32, i32, i32, i32, ptr, i8, ptr, ptr, i16, i16, i32, i32, i16, i32, i32, ptr, ptr, ptr, i8, i8, i16, i16, i16, i32, i16, i16, ptr, ptr, ptr, ptr, ptr, i32, i32 }
%struct.nstime_t = type { i64, i32 }
%struct._address = type { i32, i32, ptr, ptr }
%struct.anon = type { i8, [3 x i8] }

@.str.114 = private unnamed_addr constant [10 x i8] c"Gadu-Gadu\00", align 1
@gadu_gadu_desegment = internal global i8 1, align 1

; Function Attrs: null_pointer_is_valid sspstrong uwtable
define internal i32 @dissect_gadu_gadu(ptr noundef %0, ptr noundef %1, ptr noundef %2, ptr noundef %3) #0 {
  %5 = alloca i32, align 4
  %6 = alloca ptr, align 8
  %7 = alloca ptr, align 8
  %8 = alloca ptr, align 8
  %9 = alloca ptr, align 8
  store ptr %0, ptr %6, align 8
  store ptr %1, ptr %7, align 8
  store ptr %2, ptr %8, align 8
  store ptr %3, ptr %9, align 8
  %10 = load ptr, ptr %7, align 8
  %11 = getelementptr inbounds nuw %struct._packet_info, ptr %10, i32 0, i32 24
  %12 = load i32, ptr %11, align 4
  %13 = load ptr, ptr %7, align 8
  %14 = getelementptr inbounds nuw %struct._packet_info, ptr %13, i32 0, i32 26
  %15 = load i32, ptr %14, align 4
  %16 = icmp eq i32 %12, %15
  br i1 %16, label %17, label %28

17:                                               ; preds = %4
  %18 = load ptr, ptr %7, align 8
  %19 = getelementptr inbounds nuw %struct._packet_info, ptr %18, i32 0, i32 25
  %20 = load i32, ptr %19, align 8
  %21 = load ptr, ptr %7, align 8
  %22 = getelementptr inbounds nuw %struct._packet_info, ptr %21, i32 0, i32 26
  %23 = load i32, ptr %22, align 4
  %24 = icmp ne i32 %20, %23
  br i1 %24, label %25, label %28

25:                                               ; preds = %17
  %26 = load ptr, ptr %7, align 8
  %27 = getelementptr inbounds nuw %struct._packet_info, ptr %26, i32 0, i32 37
  store i32 1, ptr %27, align 4
  br label %49

28:                                               ; preds = %17, %4
  %29 = load ptr, ptr %7, align 8
  %30 = getelementptr inbounds nuw %struct._packet_info, ptr %29, i32 0, i32 24
  %31 = load i32, ptr %30, align 4
  %32 = load ptr, ptr %7, align 8
  %33 = getelementptr inbounds nuw %struct._packet_info, ptr %32, i32 0, i32 26
  %34 = load i32, ptr %33, align 4
  %35 = icmp ne i32 %31, %34
  br i1 %35, label %36, label %47

36:                                               ; preds = %28
  %37 = load ptr, ptr %7, align 8
  %38 = getelementptr inbounds nuw %struct._packet_info, ptr %37, i32 0, i32 25
  %39 = load i32, ptr %38, align 8
  %40 = load ptr, ptr %7, align 8
  %41 = getelementptr inbounds nuw %struct._packet_info, ptr %40, i32 0, i32 26
  %42 = load i32, ptr %41, align 4
  %43 = icmp eq i32 %39, %42
  br i1 %43, label %44, label %47

44:                                               ; preds = %36
  %45 = load ptr, ptr %7, align 8
  %46 = getelementptr inbounds nuw %struct._packet_info, ptr %45, i32 0, i32 37
  store i32 0, ptr %46, align 4
  br label %48

47:                                               ; preds = %36, %28
  store i32 0, ptr %5, align 4
  br label %64

48:                                               ; preds = %44
  br label %49

49:                                               ; preds = %48, %25
  %50 = load ptr, ptr %7, align 8
  %51 = getelementptr inbounds nuw %struct._packet_info, ptr %50, i32 0, i32 1
  %52 = load ptr, ptr %51, align 8
  call void @col_set_str(ptr noundef %52, i32 noundef 35, ptr noundef @.str.114)
  %53 = load ptr, ptr %7, align 8
  %54 = getelementptr inbounds nuw %struct._packet_info, ptr %53, i32 0, i32 1
  %55 = load ptr, ptr %54, align 8
  call void @col_clear(ptr noundef %55, i32 noundef 25)
  %56 = load ptr, ptr %6, align 8
  %57 = load ptr, ptr %7, align 8
  %58 = load ptr, ptr %8, align 8
  %59 = load i8, ptr @gadu_gadu_desegment, align 1, !range !6, !noundef !7
  %60 = trunc i8 %59 to i1
  %61 = load ptr, ptr %9, align 8
  call void @tcp_dissect_pdus(ptr noundef %56, ptr noundef %57, ptr noundef %58, i1 noundef zeroext %60, i32 noundef 8, ptr noundef @get_gadu_gadu_pdu_len, ptr noundef @dissect_gadu_gadu_pdu, ptr noundef %61)
  %62 = load ptr, ptr %6, align 8
  %63 = call i32 @tvb_captured_length(ptr noundef %62)
  store i32 %63, ptr %5, align 4
  br label %64

64:                                               ; preds = %49, %47
  %65 = load i32, ptr %5, align 4
  ret i32 %65
}