; Function Attrs: null_pointer_is_valid sspstrong uwtable
define internal i32 @dissect_gadu_gadu(ptr noundef %0, ptr noundef %1, ptr noundef %2, ptr noundef %3) #0 {
  %5 = getelementptr inbounds nuw i8, ptr %1, i64 284
  %6 = load i32, ptr %5, align 4
  %7 = getelementptr inbounds nuw i8, ptr %1, i64 292
  %8 = load i32, ptr %7, align 4
  %9 = icmp eq i32 %6, %8
  %10 = getelementptr inbounds nuw i8, ptr %1, i64 288
  %11 = load i32, ptr %10, align 8
  br i1 %9, label %12, label %13

12:                                               ; preds = %4
  %.not = icmp eq i32 %11, %6
  br i1 %.not, label %.thread, label %15

13:                                               ; preds = %4
  %14 = icmp eq i32 %11, %8
  br i1 %14, label %15, label %.thread

15:                                               ; preds = %13, %12
  %.sink = phi i32 [ 1, %12 ], [ 0, %13 ]
  %16 = getelementptr inbounds nuw i8, ptr %1, i64 348
  store i32 %.sink, ptr %16, align 4
  %17 = getelementptr inbounds nuw i8, ptr %1, i64 8
  %18 = load ptr, ptr %17, align 8
  tail call void @col_set_str(ptr noundef %18, i32 noundef 35, ptr noundef nonnull @.str.114)
  %19 = load ptr, ptr %17, align 8
  tail call void @col_clear(ptr noundef %19, i32 noundef 25)
  %20 = load i8, ptr @gadu_gadu_desegment, align 1, !range !6, !noundef !7
  %21 = trunc nuw i8 %20 to i1
  tail call void @tcp_dissect_pdus(ptr noundef %0, ptr noundef %1, ptr noundef %2, i1 noundef zeroext %21, i32 noundef 8, ptr noundef nonnull @get_gadu_gadu_pdu_len, ptr noundef nonnull @dissect_gadu_gadu_pdu, ptr noundef %3)
  %22 = tail call i32 @tvb_captured_length(ptr noundef %0)
  br label %.thread

.thread:                                          ; preds = %12, %13, %15
  %.0 = phi i32 [ %22, %15 ], [ 0, %13 ], [ 0, %12 ]
  ret i32 %.0
}